target datalayout = "e-m:e-p270:32:32-p271:32:32-p272:64:64-i64:64-i128:128-f80:128-n8:16:32:64-S128"
target triple = "x86_64-pc-linux-gnu"

%struct.anon.17 = type { i32, ptr }
%struct.__sigset_t = type { [16 x i64] }

@.str.20 = private unnamed_addr constant [8 x i8] c"UNKNOWN\00", align 1
@.str.44 = private unnamed_addr constant [9 x i8] c"SIGRTMIN\00", align 1
@.str.45 = private unnamed_addr constant [9 x i8] c"SIGRTMAX\00", align 1
@.str.46 = private unnamed_addr constant [12 x i8] c"SIGRTMIN+%d\00", align 1
@.str.47 = private unnamed_addr constant [8 x i8] c"INVALID\00", align 1

; Function Attrs: mustprogress nounwind uwtable
define internal noundef zeroext i1 @_ZL15is_valid_signali(i32 noundef %0) #1 {
  %2 = alloca i1, align 1
  %3 = alloca i32, align 4
  %4 = alloca %struct.__sigset_t, align 8
  store i32 %0, ptr %3, align 4
  %5 = call i32 @sigemptyset(ptr noundef %4) #2
  %6 = load i32, ptr %3, align 4
  %7 = call i32 @sigaddset(ptr noundef %4, i32 noundef %6) #2
  %8 = icmp eq i32 %7, -1
  br i1 %8, label %9, label %14

9:                                                ; preds = %1
  %10 = call ptr @__errno_location() #13
  %11 = load i32, ptr %10, align 4
  %12 = icmp eq i32 %11, 22
  br i1 %12, label %13, label %14

13:                                               ; preds = %9
  store i1 false, ptr %2, align 1
  br label %15

14:                                               ; preds = %9, %1
  store i1 true, ptr %2, align 1
  br label %15

15:                                               ; preds = %14, %13
  %16 = load i1, ptr %2, align 1
  ret i1 %16
}

; Function Attrs: mustprogress nounwind uwtable
define internal noundef ptr @_ZL15get_signal_nameiPcm(i32 noundef %0, ptr noundef %1, i64 noundef %2) #1 {
  %4 = alloca ptr, align 8
  %5 = alloca i32, align 4
  %6 = alloca ptr, align 8
  %7 = alloca i64, align 8
  %8 = alloca ptr, align 8
  %9 = alloca i32, align 4
  store i32 %0, ptr %5, align 4
  store ptr %1, ptr %6, align 8
  store i64 %2, ptr %7, align 8
  store ptr null, ptr %8, align 8
  %10 = load i32, ptr %5, align 4
  %11 = call i32 @__libc_current_sigrtmin() #2
  %12 = icmp sge i32 %10, %11
  br i1 %12, label %13, label %37

13:                                               ; preds = %3
  %14 = load i32, ptr %5, align 4
  %15 = call i32 @__libc_current_sigrtmax() #2
  %16 = icmp sle i32 %14, %15
  br i1 %16, label %17, label %37

17:                                               ; preds = %13
  %18 = load i32, ptr %5, align 4
  %19 = call i32 @__libc_current_sigrtmin() #2
  %20 = icmp eq i32 %18, %19
  br i1 %20, label %21, label %22

21:                                               ; preds = %17
  store ptr @.str.44, ptr %8, align 8
  br label %36

22:                                               ; preds = %17
  %23 = load i32, ptr %5, align 4
  %24 = call i32 @__libc_current_sigrtmax() #2
  %25 = icmp eq i32 %23, %24
  br i1 %25, label %26, label %27

26:                                               ; preds = %22
  store ptr @.str.45, ptr %8, align 8
  br label %35

27:                                               ; preds = %22
  %28 = load ptr, ptr %6, align 8
  %29 = load i64, ptr %7, align 8
  %30 = load i32, ptr %5, align 4
  %31 = call i32 @__libc_current_sigrtmin() #2
  %32 = sub nsw i32 %30, %31
  %33 = call i32 (ptr, i64, ptr, ...) @jio_snprintf(ptr noundef %28, i64 noundef %29, ptr noundef @.str.46, i32 noundef %32)
  %34 = load ptr, ptr %6, align 8
  store ptr %34, ptr %4, align 8
  br label %93

35:                                               ; preds = %26
  br label %36

36:                                               ; preds = %35, %21
  br label %37

37:                                               ; preds = %36, %13, %3
  %38 = load i32, ptr %5, align 4
  %39 = icmp sgt i32 %38, 0
  br i1 %39, label %40, label %67

40:                                               ; preds = %37
  store i32 0, ptr %9, align 4
  br label %41

41:                                               ; preds = %63, %40
  %42 = load i32, ptr %9, align 4
  %43 = sext i32 %42 to i64
  %44 = getelementptr inbounds [34 x %struct.anon.17], ptr @_ZL13g_signal_info, i64 0, i64 %43
  %45 = getelementptr inbounds %struct.anon.17, ptr %44, i32 0, i32 0
  %46 = load i32, ptr %45, align 16
  %47 = icmp ne i32 %46, -1
  br i1 %47, label %48, label %66

48:                                               ; preds = %41
  %49 = load i32, ptr %9, align 4
  %50 = sext i32 %49 to i64
  %51 = getelementptr inbounds [34 x %struct.anon.17], ptr @_ZL13g_signal_info, i64 0, i64 %50
  %52 = getelementptr inbounds %struct.anon.17, ptr %51, i32 0, i32 0
  %53 = load i32, ptr %52, align 16
  %54 = load i32, ptr %5, align 4
  %55 = icmp eq i32 %53, %54
  br i1 %55, label %56, label %62

56:                                               ; preds = %48
  %57 = load i32, ptr %9, align 4
  %58 = sext i32 %57 to i64
  %59 = getelementptr inbounds [34 x %struct.anon.17], ptr @_ZL13g_signal_info, i64 0, i64 %58
  %60 = getelementptr inbounds %struct.anon.17, ptr %59, i32 0, i32 1
  %61 = load ptr, ptr %60, align 8
  store ptr %61, ptr %8, align 8
  br label %66

62:                                               ; preds = %48
  br label %63

63:                                               ; preds = %62
  %64 = load i32, ptr %9, align 4
  %65 = add nsw i32 %64, 1
  store i32 %65, ptr %9, align 4
  br label %41, !llvm.loop !10

66:                                               ; preds = %56, %41
  br label %67

67:                                               ; preds = %66, %37
  %68 = load ptr, ptr %8, align 8
  %69 = icmp ne ptr %68, null
  br i1 %69, label %76, label %70

70:                                               ; preds = %67
  %71 = load i32, ptr %5, align 4
  %72 = call noundef zeroext i1 @_ZL15is_valid_signali(i32 noundef %71)
  br i1 %72, label %74, label %73

73:                                               ; preds = %70
  store ptr @.str.47, ptr %8, align 8
  br label %75

74:                                               ; preds = %70
  store ptr @.str.20, ptr %8, align 8
  br label %75

75:                                               ; preds = %74, %73
  br label %76

76:                                               ; preds = %75, %67
  %77 = load ptr, ptr %6, align 8
  %78 = icmp ne ptr %77, null
  br i1 %78, label %79, label %91

79:                                               ; preds = %76
  %80 = load i64, ptr %7, align 8
  %81 = icmp ugt i64 %80, 0
  br i1 %81, label %82, label %91

82:                                               ; preds = %79
  %83 = load ptr, ptr %6, align 8
  %84 = load ptr, ptr %8, align 8
  %85 = load i64, ptr %7, align 8
  %86 = call ptr @strncpy(ptr noundef %83, ptr noundef %84, i64 noundef %85) #2
  %87 = load ptr, ptr %6, align 8
  %88 = load i64, ptr %7, align 8
  %89 = sub i64 %88, 1
  %90 = getelementptr inbounds i8, ptr %87, i64 %89
  store i8 0, ptr %90, align 1
  br label %91

91:                                               ; preds = %82, %79, %76
  %92 = load ptr, ptr %6, align 8
  store ptr %92, ptr %4, align 8
  br label %93

93:                                               ; preds = %91, %27
  %94 = load ptr, ptr %4, align 8
  ret ptr %94
}