; Function Attrs: mustprogress nounwind uwtable
define internal fastcc noundef ptr @_ZL15get_signal_nameiPcm(i32 noundef %0, ptr noundef returned %1, i64 noundef %2) unnamed_addr #0 {
  %4 = alloca %struct.__sigset_t, align 8
  %5 = tail call i32 @__libc_current_sigrtmin() #20
  %.not = icmp sgt i32 %5, %0
  br i1 %.not, label %18, label %6

6:                                                ; preds = %3
  %7 = tail call i32 @__libc_current_sigrtmax() #20
  %.not31 = icmp slt i32 %7, %0
  br i1 %.not31, label %18, label %8

8:                                                ; preds = %6
  %9 = tail call i32 @__libc_current_sigrtmin() #20
  %10 = icmp eq i32 %9, %0
  br i1 %10, label %18, label %11

11:                                               ; preds = %8
  %12 = tail call i32 @__libc_current_sigrtmax() #20
  %13 = icmp eq i32 %12, %0
  br i1 %13, label %18, label %14

14:                                               ; preds = %11
  %15 = tail call i32 @__libc_current_sigrtmin() #20
  %16 = sub nsw i32 %0, %15
  %17 = tail call i32 (ptr, i64, ptr, ...) @jio_snprintf(ptr noundef %1, i64 noundef %2, ptr noundef nonnull @.str.46, i32 noundef %16) #20
  br label %42

18:                                               ; preds = %11, %8, %6, %3
  %.025 = phi ptr [ null, %6 ], [ null, %3 ], [ @.str.44, %8 ], [ @.str.45, %11 ]
  %19 = icmp sgt i32 %0, 0
  br i1 %19, label %.preheader.preheader, label %.loopexit

.preheader.preheader:                             ; preds = %18
  %20 = icmp eq i32 %0, 6
  br i1 %20, label %.preheader._crit_edge, label %.lr.ph

.lr.ph:                                           ; preds = %.preheader.preheader, %.preheader
  %indvars.iv41 = phi i64 [ %indvars.iv.next, %.preheader ], [ 0, %.preheader.preheader ]
  %indvars.iv.next = add nuw nsw i64 %indvars.iv41, 1
  %exitcond = icmp eq i64 %indvars.iv.next, 33
  br i1 %exitcond, label %.loopexit, label %.preheader, !llvm.loop !13

.preheader:                                       ; preds = %.lr.ph
  %21 = getelementptr inbounds [34 x %struct.anon.17], ptr @_ZL13g_signal_info, i64 0, i64 %indvars.iv.next
  %22 = load i32, ptr %21, align 16
  %23 = icmp eq i32 %22, %0
  br i1 %23, label %.preheader._crit_edge, label %.lr.ph, !llvm.loop !13

.preheader._crit_edge:                            ; preds = %.preheader, %.preheader.preheader
  %.lcssa = phi ptr [ @_ZL13g_signal_info, %.preheader.preheader ], [ %21, %.preheader ]
  %24 = getelementptr inbounds i8, ptr %.lcssa, i64 8
  %25 = load ptr, ptr %24, align 8
  br label %.loopexit

.loopexit:                                        ; preds = %.lr.ph, %.preheader._crit_edge, %18
  %.1 = phi ptr [ %25, %.preheader._crit_edge ], [ %.025, %18 ], [ %.025, %.lr.ph ]
  %.not33 = icmp eq ptr %.1, null
  br i1 %.not33, label %26, label %35

26:                                               ; preds = %.loopexit
  call void @llvm.lifetime.start.p0(i64 128, ptr nonnull %4)
  %27 = call i32 @sigemptyset(ptr noundef nonnull %4) #20
  %28 = call i32 @sigaddset(ptr noundef nonnull %4, i32 noundef %0) #20
  %29 = icmp eq i32 %28, -1
  br i1 %29, label %30, label %34

30:                                               ; preds = %26
  %31 = tail call ptr @__errno_location() #21
  %32 = load i32, ptr %31, align 4
  %33 = icmp eq i32 %32, 22
  br i1 %33, label %_ZL15is_valid_signali.exit, label %34

_ZL15is_valid_signali.exit:                       ; preds = %30
  call void @llvm.lifetime.end.p0(i64 128, ptr nonnull %4)
  br label %35

34:                                               ; preds = %26, %30
  call void @llvm.lifetime.end.p0(i64 128, ptr nonnull %4)
  br label %35

35:                                               ; preds = %34, %_ZL15is_valid_signali.exit, %.loopexit
  %.2 = phi ptr [ %.1, %.loopexit ], [ @.str.20, %34 ], [ @.str.47, %_ZL15is_valid_signali.exit ]
  %36 = icmp ne ptr %1, null
  %37 = icmp ne i64 %2, 0
  %or.cond = and i1 %36, %37
  br i1 %or.cond, label %38, label %42

38:                                               ; preds = %35
  %39 = call ptr @strncpy(ptr noundef nonnull %1, ptr noundef nonnull %.2, i64 noundef %2) #20
  %40 = getelementptr i8, ptr %1, i64 %2
  %41 = getelementptr i8, ptr %40, i64 -1
  store i8 0, ptr %41, align 1
  br label %42

42:                                               ; preds = %35, %38, %14
  ret ptr %1
}